(dp1
I0
(dp2
I0
(dp3
S'BKPIECEkConfigDefault'
p4
(dp5
S'avg_runs'
p6
I1
sS'avg_dist'
p7
F2.2062677516434595
sS'avg_path_length'
p8
F2.2062677516434595
sS'avg_run_time'
p9
F0.92106103897094727
sS'avg_plan_time'
p10
F0.26469707489013672
ssS'start'
p11
S'vertical'
p12
sS'RRTConnectkConfigDefault'
p13
(dp14
g6
I1
sg7
F2.2061195351077099
sg8
F2.2061195351077094
sg9
F0.40900802612304688
sg10
F0.063519954681396484
ssS'goal'
p15
S'backbend'
p16
ssI1
(dp17
g4
(dp18
g6
I1
sg7
F2.3945540838343526
sg8
F4.5196991981886692
sg9
F1.1998379230499268
sg10
F0.31801009178161621
ssg11
g12
sg13
(dp19
g6
I1
sg7
F2.394490536599795
sg8
F4.1655828381297537
sg9
F0.58072209358215332
sg10
F0.0510711669921875
ssg15
S'resting'
p20
ssI2
(dp21
g4
(dp22
g6
I1
sg7
F4.5079979992103096
sg8
F5.286438978488774
sg9
F1.588770866394043
sg10
F0.2320249080657959
ssg11
g16
sg13
(dp23
g6
I1
sg7
F4.5080328015415887
sg8
F7.1276847102992811
sg9
F0.78299403190612793
sg10
F0.079289913177490234
ssg15
g20
ssS'name'
p24
S'narrow'
p25
ss.