(dp1
I0
(dp2
I0
(dp3
S'BKPIECEkConfigDefault'
p4
(dp5
S'avg_runs'
p6
I1
sS'avg_dist'
p7
F2.2060522409873884
sS'avg_path_length'
p8
F2.2060522409873888
sS'avg_run_time'
p9
F4.4996850490570068
sS'avg_plan_time'
p10
F0.35263586044311523
ssS'start'
p11
S'vertical'
p12
sS'RRTConnectkConfigDefault'
p13
(dp14
g6
I1
sg7
F2.2061324219096354
sg8
F2.2061324219096354
sg9
F0.71061086654663086
sg10
F0.060704946517944336
ssS'goal'
p15
S'backbend'
p16
ssI1
(dp17
g4
(dp18
g6
I1
sg7
F2.3944487799779348
sg8
F2.3944487799779353
sg9
F1.3998680114746094
sg10
F0.37801504135131836
ssg11
g12
sg13
(dp19
g6
I1
sg7
F2.3945461571314013
sg8
F2.3945461571314013
sg9
F0.74310779571533203
sg10
F0.080344915390014648
ssg15
S'resting'
p20
ssI2
(dp21
g4
(dp22
g6
I1
sg7
F4.5079480397548934
sg8
F4.5079480397548952
sg9
F2.5172090530395508
sg10
F0.55119991302490234
ssg11
g16
sg13
(dp23
g6
I1
sg7
F4.5079753479628923
sg8
F4.5079753479628923
sg9
F0.98440384864807129
sg10
F0.072093009948730469
ssg15
g20
ssS'name'
p24
S'scene_7'
p25
ssI1
(dp26
I0
(dp27
g4
(dp28
g6
I1
sg7
F2.206289497620292
sg8
F2.2062894976202925
sg9
F1.5442168712615967
sg10
F0.23750615119934082
ssg11
g12
sg13
(dp29
g6
I1
sg7
F2.2059430878751338
sg8
F2.2059430878751338
sg9
F0.69553709030151367
sg10
F0.043500900268554688
ssg15
g16
ssI1
(dp30
g4
(dp31
g6
I1
sg7
F2.3944998854380111
sg8
F2.3944998854380106
sg9
F1.7596461772918701
sg10
F0.48713207244873047
ssg11
g12
sg13
(dp32
g6
I1
sg7
F2.3944593665311644
sg8
F2.3944593665311644
sg9
F0.53317618370056152
sg10
F0.052241086959838867
ssg15
g20
ssI2
(dp33
g4
(dp34
g6
I1
sg7
F4.5079583426796779
sg8
F4.5079583426796797
sg9
F1.9697768688201904
sg10
F0.36900615692138672
ssg11
g16
sg13
(dp35
g6
I1
sg7
F4.5078523213210255
sg8
F4.5078523213210255
sg9
F0.79141497611999512
sg10
F0.076740026473999023
ssg15
g20
ssg24
S'scene_6'
p36
ss.